; Function Attrs: nounwind uwtable
define dso_local noundef i32 @internalerrquery(ptr noundef %0) local_unnamed_addr #3 {
  %2 = load i32, ptr @errordata_stack_depth, align 4
  %3 = sext i32 %2 to i64
  %4 = getelementptr inbounds [5 x %struct.ErrorData], ptr @errordata, i64 0, i64 %3
  %5 = icmp slt i32 %2, 0
  br i1 %5, label %6, label %9

6:                                                ; preds = %1
  store i32 -1, ptr @errordata_stack_depth, align 4
  %7 = tail call zeroext i1 @errstart_cold(i32 noundef 21, ptr noundef null) #33
  tail call void @llvm.assume(i1 %7)
  %8 = tail call i32 (ptr, ...) @errmsg_internal(ptr noundef nonnull @.str.1)
  tail call void @errfinish(ptr noundef nonnull @.str.2, i32 noundef 1487, ptr noundef nonnull @__func__.internalerrquery)
  unreachable

9:                                                ; preds = %1
  %10 = getelementptr inbounds nuw i8, ptr %4, i64 160
  %11 = load ptr, ptr %10, align 8
  %.not = icmp eq ptr %11, null
  br i1 %.not, label %13, label %12

12:                                               ; preds = %9
  tail call void @pfree(ptr noundef nonnull %11) #32
  store ptr null, ptr %10, align 8
  br label %13

13:                                               ; preds = %12, %9
  %.not8 = icmp eq ptr %0, null
  br i1 %.not8, label %18, label %14

14:                                               ; preds = %13
  %15 = getelementptr inbounds nuw i8, ptr %4, i64 176
  %16 = load ptr, ptr %15, align 8
  %17 = tail call ptr @MemoryContextStrdup(ptr noundef %16, ptr noundef nonnull %0) #32
  store ptr %17, ptr %10, align 8
  br label %18

18:                                               ; preds = %14, %13
  ret i32 0
}